; Function Attrs: mustprogress uwtable
define void @_ZN10MainWindow16readViewFromFileERK7QString(ptr nocapture noundef nonnull readonly align 8 dereferenceable(1376) %0, ptr noundef nonnull align 8 dereferenceable(8) %1) local_unnamed_addr #9 align 2 {
  %3 = getelementptr inbounds i8, ptr %0, i64 1368
  %4 = load ptr, ptr %3, align 8
  %.not.i = icmp eq ptr %4, null
  br i1 %.not.i, label %_ZNK10MainWindow3GLAEv.exit.thread, label %_ZNK10MainWindow3GLAEv.exit

_ZNK10MainWindow3GLAEv.exit:                      ; preds = %2
  %5 = getelementptr inbounds i8, ptr %4, i64 256
  %6 = load ptr, ptr %5, align 8
  %.not = icmp eq ptr %6, null
  br i1 %.not, label %_ZNK10MainWindow3GLAEv.exit.thread, label %_ZNK10MainWindow3GLAEv.exit4

_ZNK10MainWindow3GLAEv.exit4:                     ; preds = %_ZNK10MainWindow3GLAEv.exit
  %7 = tail call noundef zeroext i1 @_ZN6GLArea16readViewFromFileERK7QString(ptr noundef nonnull align 8 dereferenceable(1676) %6, ptr noundef nonnull align 8 dereferenceable(8) %1)
  br label %_ZNK10MainWindow3GLAEv.exit.thread

_ZNK10MainWindow3GLAEv.exit.thread:               ; preds = %2, %_ZNK10MainWindow3GLAEv.exit4, %_ZNK10MainWindow3GLAEv.exit
  ret void
}